(lp0
(S'version.txt'
p1
S'/nix/store/n54j37v18xij59zbrzw9kkqjlvkvig0y-arduino-core/share/arduino/lib/version.txt'
p2
tp3
a(S'make'
p4
S'/home/bob/.nix-profile/bin/make'
p5
tp6
a(S'build_dir'
p7
S'.build/uno'
p8
tp9
a(S'arduino_core_dir'
p10
S'/nix/store/n54j37v18xij59zbrzw9kkqjlvkvig0y-arduino-core/share/arduino/hardware/arduino/cores/arduino'
p11
tp12
a(S'boards.txt'
p13
S'/nix/store/n54j37v18xij59zbrzw9kkqjlvkvig0y-arduino-core/share/arduino/hardware/arduino/boards.txt'
p14
tp15
a(S'arduino_variants_dir'
p16
S'/nix/store/n54j37v18xij59zbrzw9kkqjlvkvig0y-arduino-core/share/arduino/hardware/arduino/variants'
p17
tp18
a(S'arduino_libraries_dir'
p19
S'/nix/store/n54j37v18xij59zbrzw9kkqjlvkvig0y-arduino-core/share/arduino/libraries'
p20
tp21
a(S'arduino_lib_version'
p22
ccopy_reg
_reconstructor
p23
(cino.environment
Version
p24
c__builtin__
tuple
p25
(I1
I0
I2
tp26
tp27
Rp28
tp29
a(S'board_models'
p30
cino.environment
BoardModels
p31
((lp32
(lp33
S'uno'
p34
a(dp35
S'build'
p36
(dp37
S'core'
p38
S'arduino'
p39
sS'mcu'
p40
S'atmega328p'
p41
sS'f_cpu'
p42
S'16000000L'
p43
sS'variant'
p44
S'standard'
p45
ssS'bootloader'
p46
(dp47
S'extended_fuses'
p48
S'0x05'
p49
sS'high_fuses'
p50
S'0xde'
p51
sS'low_fuses'
p52
S'0xff'
p53
sS'lock_bits'
p54
S'0x0F'
p55
sS'file'
p56
S'optiboot_atmega328.hex'
p57
sS'path'
p58
S'optiboot'
p59
sS'unlock_bits'
p60
S'0x3F'
p61
ssS'name'
p62
S'Arduino Uno'
p63
sS'upload'
p64
(dp65
S'speed'
p66
S'115200'
p67
sS'maximum_size'
p68
S'32256'
p69
sS'protocol'
p70
S'arduino'
p71
ssaa(lp72
S'atmega328'
p73
a(dp74
S'build'
p75
(dp76
S'core'
p77
S'arduino'
p78
sS'mcu'
p79
S'atmega328p'
p80
sS'f_cpu'
p81
S'16000000L'
p82
sS'variant'
p83
S'standard'
p84
ssS'bootloader'
p85
(dp86
S'extended_fuses'
p87
S'0x05'
p88
sS'high_fuses'
p89
S'0xDA'
p90
sS'low_fuses'
p91
S'0xFF'
p92
sS'lock_bits'
p93
S'0x0F'
p94
sS'file'
p95
S'ATmegaBOOT_168_atmega328.hex'
p96
sS'path'
p97
S'atmega'
p98
sS'unlock_bits'
p99
S'0x3F'
p100
ssS'name'
p101
S'Arduino Duemilanove w/ ATmega328'
p102
sS'upload'
p103
(dp104
S'speed'
p105
S'57600'
p106
sS'maximum_size'
p107
S'30720'
p108
sS'protocol'
p109
S'arduino'
p110
ssaa(lp111
S'diecimila'
p112
a(dp113
S'build'
p114
(dp115
S'core'
p116
S'arduino'
p117
sS'mcu'
p118
S'atmega168'
p119
sS'f_cpu'
p120
S'16000000L'
p121
sS'variant'
p122
S'standard'
p123
ssS'bootloader'
p124
(dp125
S'extended_fuses'
p126
S'0x00'
p127
sS'high_fuses'
p128
S'0xdd'
p129
sS'low_fuses'
p130
S'0xff'
p131
sS'lock_bits'
p132
S'0x0F'
p133
sS'file'
p134
S'ATmegaBOOT_168_diecimila.hex'
p135
sS'path'
p136
S'atmega'
p137
sS'unlock_bits'
p138
S'0x3F'
p139
ssS'name'
p140
S'Arduino Diecimila or Duemilanove w/ ATmega168'
p141
sS'upload'
p142
(dp143
S'speed'
p144
S'19200'
p145
sS'maximum_size'
p146
S'14336'
p147
sS'protocol'
p148
S'arduino'
p149
ssaa(lp150
S'nano328'
p151
a(dp152
S'build'
p153
(dp154
S'core'
p155
S'arduino'
p156
sS'mcu'
p157
S'atmega328p'
p158
sS'f_cpu'
p159
S'16000000L'
p160
sS'variant'
p161
S'eightanaloginputs'
p162
ssS'bootloader'
p163
(dp164
S'extended_fuses'
p165
S'0x05'
p166
sS'high_fuses'
p167
S'0xDA'
p168
sS'low_fuses'
p169
S'0xFF'
p170
sS'lock_bits'
p171
S'0x0F'
p172
sS'file'
p173
S'ATmegaBOOT_168_atmega328.hex'
p174
sS'path'
p175
S'atmega'
p176
sS'unlock_bits'
p177
S'0x3F'
p178
ssS'name'
p179
S'Arduino Nano w/ ATmega328'
p180
sS'upload'
p181
(dp182
S'speed'
p183
S'57600'
p184
sS'maximum_size'
p185
S'30720'
p186
sS'protocol'
p187
S'arduino'
p188
ssaa(lp189
S'nano'
p190
a(dp191
S'build'
p192
(dp193
S'core'
p194
S'arduino'
p195
sS'mcu'
p196
S'atmega168'
p197
sS'f_cpu'
p198
S'16000000L'
p199
sS'variant'
p200
S'eightanaloginputs'
p201
ssS'bootloader'
p202
(dp203
S'extended_fuses'
p204
S'0x00'
p205
sS'high_fuses'
p206
S'0xdd'
p207
sS'low_fuses'
p208
S'0xff'
p209
sS'lock_bits'
p210
S'0x0F'
p211
sS'file'
p212
S'ATmegaBOOT_168_diecimila.hex'
p213
sS'path'
p214
S'atmega'
p215
sS'unlock_bits'
p216
S'0x3F'
p217
ssS'name'
p218
S'Arduino Nano w/ ATmega168'
p219
sS'upload'
p220
(dp221
S'speed'
p222
S'19200'
p223
sS'maximum_size'
p224
S'14336'
p225
sS'protocol'
p226
S'arduino'
p227
ssaa(lp228
S'mega2560'
p229
a(dp230
S'build'
p231
(dp232
S'core'
p233
S'arduino'
p234
sS'mcu'
p235
S'atmega2560'
p236
sS'f_cpu'
p237
S'16000000L'
p238
sS'variant'
p239
S'mega'
p240
ssS'bootloader'
p241
(dp242
S'extended_fuses'
p243
S'0xFD'
p244
sS'high_fuses'
p245
S'0xD8'
p246
sS'low_fuses'
p247
S'0xFF'
p248
sS'lock_bits'
p249
S'0x0F'
p250
sS'file'
p251
S'stk500boot_v2_mega2560.hex'
p252
sS'path'
p253
S'stk500v2'
p254
sS'unlock_bits'
p255
S'0x3F'
p256
ssS'name'
p257
S'Arduino Mega 2560 or Mega ADK'
p258
sS'upload'
p259
(dp260
S'speed'
p261
S'115200'
p262
sS'maximum_size'
p263
S'258048'
p264
sS'protocol'
p265
S'wiring'
p266
ssaa(lp267
S'mega'
p268
a(dp269
S'build'
p270
(dp271
S'core'
p272
S'arduino'
p273
sS'mcu'
p274
S'atmega1280'
p275
sS'f_cpu'
p276
S'16000000L'
p277
sS'variant'
p278
S'mega'
p279
ssS'bootloader'
p280
(dp281
S'extended_fuses'
p282
S'0xF5'
p283
sS'high_fuses'
p284
S'0xDA'
p285
sS'low_fuses'
p286
S'0xFF'
p287
sS'lock_bits'
p288
S'0x0F'
p289
sS'file'
p290
S'ATmegaBOOT_168_atmega1280.hex'
p291
sS'path'
p292
S'atmega'
p293
sS'unlock_bits'
p294
S'0x3F'
p295
ssS'name'
p296
S'Arduino Mega (ATmega1280)'
p297
sS'upload'
p298
(dp299
S'speed'
p300
S'57600'
p301
sS'maximum_size'
p302
S'126976'
p303
sS'protocol'
p304
S'arduino'
p305
ssaa(lp306
S'leonardo'
p307
a(dp308
S'build'
p309
(dp310
S'core'
p311
S'arduino'
p312
sS'f_cpu'
p313
S'16000000L'
p314
sS'vid'
p315
S'0x2341'
p316
sS'pid'
p317
S'0x8036'
p318
sS'variant'
p319
S'leonardo'
p320
sS'mcu'
p321
S'atmega32u4'
p322
ssS'bootloader'
p323
(dp324
S'extended_fuses'
p325
S'0xcb'
p326
sS'high_fuses'
p327
S'0xd8'
p328
sS'low_fuses'
p329
S'0xff'
p330
sS'lock_bits'
p331
S'0x2F'
p332
sS'file'
p333
S'Caterina-Leonardo.hex'
p334
sS'path'
p335
S'caterina'
p336
sS'unlock_bits'
p337
S'0x3F'
p338
ssS'name'
p339
S'Arduino Leonardo'
p340
sS'upload'
p341
(dp342
S'speed'
p343
S'57600'
p344
sS'maximum_size'
p345
S'28672'
p346
sS'protocol'
p347
S'avr109'
p348
sS'disable_flushing'
p349
S'true'
p350
ssaa(lp351
S'micro'
p352
a(dp353
S'build'
p354
(dp355
S'core'
p356
S'arduino'
p357
sS'f_cpu'
p358
S'16000000L'
p359
sS'vid'
p360
S'0x2341'
p361
sS'pid'
p362
S'0x8037'
p363
sS'variant'
p364
S'micro'
p365
sS'mcu'
p366
S'atmega32u4'
p367
ssS'bootloader'
p368
(dp369
S'extended_fuses'
p370
S'0xcb'
p371
sS'high_fuses'
p372
S'0xd8'
p373
sS'low_fuses'
p374
S'0xff'
p375
sS'lock_bits'
p376
S'0x2F'
p377
sS'file'
p378
S'Caterina-Micro.hex'
p379
sS'path'
p380
S'caterina'
p381
sS'unlock_bits'
p382
S'0x3F'
p383
ssS'name'
p384
S'Arduino Micro'
p385
sS'upload'
p386
(dp387
S'speed'
p388
S'57600'
p389
sS'maximum_size'
p390
S'28672'
p391
sS'protocol'
p392
S'avr109'
p393
sS'disable_flushing'
p394
S'true'
p395
ssaa(lp396
S'mini328'
p397
a(dp398
S'build'
p399
(dp400
S'core'
p401
S'arduino'
p402
sS'mcu'
p403
S'atmega328p'
p404
sS'f_cpu'
p405
S'16000000L'
p406
sS'variant'
p407
S'eightanaloginputs'
p408
ssS'bootloader'
p409
(dp410
S'extended_fuses'
p411
S'0x05'
p412
sS'high_fuses'
p413
S'0xd8'
p414
sS'low_fuses'
p415
S'0xff'
p416
sS'lock_bits'
p417
S'0x0F'
p418
sS'file'
p419
S'optiboot_atmega328-Mini.hex'
p420
sS'path'
p421
S'optiboot'
p422
sS'unlock_bits'
p423
S'0x3F'
p424
ssS'name'
p425
S'Arduino Mini w/ ATmega328'
p426
sS'upload'
p427
(dp428
S'speed'
p429
S'115200'
p430
sS'maximum_size'
p431
S'28672'
p432
sS'protocol'
p433
S'arduino'
p434
ssaa(lp435
S'mini'
p436
a(dp437
S'build'
p438
(dp439
S'core'
p440
S'arduino'
p441
sS'mcu'
p442
S'atmega168'
p443
sS'f_cpu'
p444
S'16000000L'
p445
sS'variant'
p446
S'eightanaloginputs'
p447
ssS'bootloader'
p448
(dp449
S'extended_fuses'
p450
S'0x00'
p451
sS'high_fuses'
p452
S'0xdd'
p453
sS'low_fuses'
p454
S'0xff'
p455
sS'lock_bits'
p456
S'0x0F'
p457
sS'file'
p458
S'ATmegaBOOT_168_ng.hex'
p459
sS'path'
p460
S'atmega'
p461
sS'unlock_bits'
p462
S'0x3F'
p463
ssS'name'
p464
S'Arduino Mini w/ ATmega168'
p465
sS'upload'
p466
(dp467
S'speed'
p468
S'19200'
p469
sS'maximum_size'
p470
S'14336'
p471
sS'protocol'
p472
S'arduino'
p473
ssaa(lp474
S'ethernet'
p475
a(dp476
S'build'
p477
(dp478
S'f_cpu'
p479
S'16000000L'
p480
sS'mcu'
p481
S'atmega328p'
p482
sS'variant'
p483
S'standard'
p484
sS'core'
p485
S'arduino'
p486
ssS'bootloader'
p487
(dp488
S'extended_fuses'
p489
S'0x05'
p490
sS'high_fuses'
p491
S'0xde'
p492
sS'low_fuses'
p493
S'0xff'
p494
sS'lock_bits'
p495
S'0x0F'
p496
sS'file'
p497
S'optiboot_atmega328.hex'
p498
sS'path'
p499
S'optiboot'
p500
sS'unlock_bits'
p501
S'0x3F'
p502
ssS'name'
p503
S'Arduino Ethernet'
p504
sS'upload'
p505
(dp506
S'speed'
p507
S'115200'
p508
sS'maximum_size'
p509
S'32256'
p510
sS'protocol'
p511
S'arduino'
p512
ssaa(lp513
S'fio'
p514
a(dp515
S'build'
p516
(dp517
S'core'
p518
S'arduino'
p519
sS'mcu'
p520
S'atmega328p'
p521
sS'f_cpu'
p522
S'8000000L'
p523
sS'variant'
p524
S'eightanaloginputs'
p525
ssS'bootloader'
p526
(dp527
S'extended_fuses'
p528
S'0x05'
p529
sS'high_fuses'
p530
S'0xDA'
p531
sS'low_fuses'
p532
S'0xFF'
p533
sS'lock_bits'
p534
S'0x0F'
p535
sS'file'
p536
S'ATmegaBOOT_168_atmega328_pro_8MHz.hex'
p537
sS'path'
p538
S'arduino:atmega'
p539
sS'unlock_bits'
p540
S'0x3F'
p541
ssS'name'
p542
S'Arduino Fio'
p543
sS'upload'
p544
(dp545
S'speed'
p546
S'57600'
p547
sS'maximum_size'
p548
S'30720'
p549
sS'protocol'
p550
S'arduino'
p551
ssaa(lp552
S'bt328'
p553
a(dp554
S'build'
p555
(dp556
S'core'
p557
S'arduino'
p558
sS'mcu'
p559
S'atmega328p'
p560
sS'f_cpu'
p561
S'16000000L'
p562
sS'variant'
p563
S'eightanaloginputs'
p564
ssS'bootloader'
p565
(dp566
S'extended_fuses'
p567
S'0x05'
p568
sS'high_fuses'
p569
S'0xd8'
p570
sS'low_fuses'
p571
S'0xff'
p572
sS'lock_bits'
p573
S'0x0F'
p574
sS'file'
p575
S'ATmegaBOOT_168_atmega328_bt.hex'
p576
sS'path'
p577
S'bt'
p578
sS'unlock_bits'
p579
S'0x3F'
p580
ssS'name'
p581
S'Arduino BT w/ ATmega328'
p582
sS'upload'
p583
(dp584
S'speed'
p585
S'19200'
p586
sS'maximum_size'
p587
S'28672'
p588
sS'protocol'
p589
S'arduino'
p590
sS'disable_flushing'
p591
S'true'
p592
ssaa(lp593
S'bt'
p594
a(dp595
S'build'
p596
(dp597
S'core'
p598
S'arduino'
p599
sS'mcu'
p600
S'atmega168'
p601
sS'f_cpu'
p602
S'16000000L'
p603
sS'variant'
p604
S'eightanaloginputs'
p605
ssS'bootloader'
p606
(dp607
S'extended_fuses'
p608
S'0x00'
p609
sS'high_fuses'
p610
S'0xdd'
p611
sS'low_fuses'
p612
S'0xff'
p613
sS'lock_bits'
p614
S'0x0F'
p615
sS'file'
p616
S'ATmegaBOOT_168.hex'
p617
sS'path'
p618
S'bt'
p619
sS'unlock_bits'
p620
S'0x3F'
p621
ssS'name'
p622
S'Arduino BT w/ ATmega168'
p623
sS'upload'
p624
(dp625
S'speed'
p626
S'19200'
p627
sS'maximum_size'
p628
S'14336'
p629
sS'protocol'
p630
S'arduino'
p631
sS'disable_flushing'
p632
S'true'
p633
ssaa(lp634
S'LilyPadUSB'
p635
a(dp636
S'build'
p637
(dp638
S'core'
p639
S'arduino'
p640
sS'f_cpu'
p641
S'8000000L'
p642
sS'vid'
p643
S'0x1B4F'
p644
sS'pid'
p645
S'0x9208'
p646
sS'variant'
p647
S'leonardo'
p648
sS'mcu'
p649
S'atmega32u4'
p650
ssS'bootloader'
p651
(dp652
S'extended_fuses'
p653
S'0xce'
p654
sS'high_fuses'
p655
S'0xd8'
p656
sS'low_fuses'
p657
S'0xff'
p658
sS'lock_bits'
p659
S'0x2F'
p660
sS'file'
p661
S'Caterina-LilyPadUSB.hex'
p662
sS'path'
p663
S'caterina-LilyPadUSB'
p664
sS'unlock_bits'
p665
S'0x3F'
p666
ssS'name'
p667
S'LilyPad Arduino USB'
p668
sS'upload'
p669
(dp670
S'speed'
p671
S'57600'
p672
sS'maximum_size'
p673
S'28672'
p674
sS'protocol'
p675
S'avr109'
p676
sS'disable_flushing'
p677
S'true'
p678
ssaa(lp679
S'lilypad328'
p680
a(dp681
S'build'
p682
(dp683
S'core'
p684
S'arduino'
p685
sS'mcu'
p686
S'atmega328p'
p687
sS'f_cpu'
p688
S'8000000L'
p689
sS'variant'
p690
S'standard'
p691
ssS'bootloader'
p692
(dp693
S'extended_fuses'
p694
S'0x05'
p695
sS'high_fuses'
p696
S'0xDA'
p697
sS'low_fuses'
p698
S'0xFF'
p699
sS'lock_bits'
p700
S'0x0F'
p701
sS'file'
p702
S'ATmegaBOOT_168_atmega328_pro_8MHz.hex'
p703
sS'path'
p704
S'atmega'
p705
sS'unlock_bits'
p706
S'0x3F'
p707
ssS'name'
p708
S'LilyPad Arduino w/ ATmega328'
p709
sS'upload'
p710
(dp711
S'speed'
p712
S'57600'
p713
sS'maximum_size'
p714
S'30720'
p715
sS'protocol'
p716
S'arduino'
p717
ssaa(lp718
S'lilypad'
p719
a(dp720
S'build'
p721
(dp722
S'core'
p723
S'arduino'
p724
sS'mcu'
p725
S'atmega168'
p726
sS'f_cpu'
p727
S'8000000L'
p728
sS'variant'
p729
S'standard'
p730
ssS'bootloader'
p731
(dp732
S'extended_fuses'
p733
S'0x00'
p734
sS'high_fuses'
p735
S'0xdd'
p736
sS'low_fuses'
p737
S'0xe2'
p738
sS'lock_bits'
p739
S'0x0F'
p740
sS'file'
p741
S'LilyPadBOOT_168.hex'
p742
sS'path'
p743
S'lilypad'
p744
sS'unlock_bits'
p745
S'0x3F'
p746
ssS'name'
p747
S'LilyPad Arduino w/ ATmega168'
p748
sS'upload'
p749
(dp750
S'speed'
p751
S'19200'
p752
sS'maximum_size'
p753
S'14336'
p754
sS'protocol'
p755
S'arduino'
p756
ssaa(lp757
S'pro5v328'
p758
a(dp759
S'build'
p760
(dp761
S'core'
p762
S'arduino'
p763
sS'mcu'
p764
S'atmega328p'
p765
sS'f_cpu'
p766
S'16000000L'
p767
sS'variant'
p768
S'standard'
p769
ssS'bootloader'
p770
(dp771
S'extended_fuses'
p772
S'0x05'
p773
sS'high_fuses'
p774
S'0xDA'
p775
sS'low_fuses'
p776
S'0xFF'
p777
sS'lock_bits'
p778
S'0x0F'
p779
sS'file'
p780
S'ATmegaBOOT_168_atmega328.hex'
p781
sS'path'
p782
S'atmega'
p783
sS'unlock_bits'
p784
S'0x3F'
p785
ssS'name'
p786
S'Arduino Pro or Pro Mini (5V, 16 MHz) w/ ATmega328'
p787
sS'upload'
p788
(dp789
S'speed'
p790
S'57600'
p791
sS'maximum_size'
p792
S'30720'
p793
sS'protocol'
p794
S'arduino'
p795
ssaa(lp796
S'pro5v'
p797
a(dp798
S'build'
p799
(dp800
S'core'
p801
S'arduino'
p802
sS'mcu'
p803
S'atmega168'
p804
sS'f_cpu'
p805
S'16000000L'
p806
sS'variant'
p807
S'standard'
p808
ssS'bootloader'
p809
(dp810
S'extended_fuses'
p811
S'0x00'
p812
sS'high_fuses'
p813
S'0xdd'
p814
sS'low_fuses'
p815
S'0xff'
p816
sS'lock_bits'
p817
S'0x0F'
p818
sS'file'
p819
S'ATmegaBOOT_168_diecimila.hex'
p820
sS'path'
p821
S'atmega'
p822
sS'unlock_bits'
p823
S'0x3F'
p824
ssS'name'
p825
S'Arduino Pro or Pro Mini (5V, 16 MHz) w/ ATmega168'
p826
sS'upload'
p827
(dp828
S'speed'
p829
S'19200'
p830
sS'maximum_size'
p831
S'14336'
p832
sS'protocol'
p833
S'arduino'
p834
ssaa(lp835
S'pro328'
p836
a(dp837
S'build'
p838
(dp839
S'core'
p840
S'arduino'
p841
sS'mcu'
p842
S'atmega328p'
p843
sS'f_cpu'
p844
S'8000000L'
p845
sS'variant'
p846
S'standard'
p847
ssS'bootloader'
p848
(dp849
S'extended_fuses'
p850
S'0x05'
p851
sS'high_fuses'
p852
S'0xDA'
p853
sS'low_fuses'
p854
S'0xFF'
p855
sS'lock_bits'
p856
S'0x0F'
p857
sS'file'
p858
S'ATmegaBOOT_168_atmega328_pro_8MHz.hex'
p859
sS'path'
p860
S'atmega'
p861
sS'unlock_bits'
p862
S'0x3F'
p863
ssS'name'
p864
S'Arduino Pro or Pro Mini (3.3V, 8 MHz) w/ ATmega328'
p865
sS'upload'
p866
(dp867
S'speed'
p868
S'57600'
p869
sS'maximum_size'
p870
S'30720'
p871
sS'protocol'
p872
S'arduino'
p873
ssaa(lp874
S'pro'
p875
a(dp876
S'build'
p877
(dp878
S'core'
p879
S'arduino'
p880
sS'mcu'
p881
S'atmega168'
p882
sS'f_cpu'
p883
S'8000000L'
p884
sS'variant'
p885
S'standard'
p886
ssS'bootloader'
p887
(dp888
S'extended_fuses'
p889
S'0x00'
p890
sS'high_fuses'
p891
S'0xdd'
p892
sS'low_fuses'
p893
S'0xc6'
p894
sS'lock_bits'
p895
S'0x0F'
p896
sS'file'
p897
S'ATmegaBOOT_168_pro_8MHz.hex'
p898
sS'path'
p899
S'atmega'
p900
sS'unlock_bits'
p901
S'0x3F'
p902
ssS'name'
p903
S'Arduino Pro or Pro Mini (3.3V, 8 MHz) w/ ATmega168'
p904
sS'upload'
p905
(dp906
S'speed'
p907
S'19200'
p908
sS'maximum_size'
p909
S'14336'
p910
sS'protocol'
p911
S'arduino'
p912
ssaa(lp913
S'atmega168'
p914
a(dp915
S'build'
p916
(dp917
S'core'
p918
S'arduino'
p919
sS'mcu'
p920
S'atmega168'
p921
sS'f_cpu'
p922
S'16000000L'
p923
sS'variant'
p924
S'standard'
p925
ssS'bootloader'
p926
(dp927
S'extended_fuses'
p928
S'0x00'
p929
sS'high_fuses'
p930
S'0xdd'
p931
sS'low_fuses'
p932
S'0xff'
p933
sS'lock_bits'
p934
S'0x0F'
p935
sS'file'
p936
S'ATmegaBOOT_168_ng.hex'
p937
sS'path'
p938
S'atmega'
p939
sS'unlock_bits'
p940
S'0x3F'
p941
ssS'name'
p942
S'Arduino NG or older w/ ATmega168'
p943
sS'upload'
p944
(dp945
S'speed'
p946
S'19200'
p947
sS'maximum_size'
p948
S'14336'
p949
sS'protocol'
p950
S'arduino'
p951
ssaa(lp952
S'atmega8'
p953
a(dp954
S'build'
p955
(dp956
S'core'
p957
S'arduino'
p958
sS'mcu'
p959
S'atmega8'
p960
sS'f_cpu'
p961
S'16000000L'
p962
sS'variant'
p963
S'standard'
p964
ssS'bootloader'
p965
(dp966
S'high_fuses'
p967
S'0xca'
p968
sS'low_fuses'
p969
S'0xdf'
p970
sS'lock_bits'
p971
S'0x0F'
p972
sS'file'
p973
S'ATmegaBOOT.hex'
p974
sS'path'
p975
S'atmega8'
p976
sS'unlock_bits'
p977
S'0x3F'
p978
ssS'name'
p979
S'Arduino NG or older w/ ATmega8'
p980
sS'upload'
p981
(dp982
S'speed'
p983
S'19200'
p984
sS'maximum_size'
p985
S'7168'
p986
sS'protocol'
p987
S'arduino'
p988
ssaatp989
Rp990
(dp991
S'default'
p992
S'uno'
p993
sbtp994
a.